target datalayout = "e-m:e-p270:32:32-p271:32:32-p272:64:64-i64:64-i128:128-f80:128-n8:16:32:64-S128"
target triple = "x86_64-pc-linux-gnu"

@luaT_eventname = external hidden constant [0 x ptr], align 8
@.str.3 = private unnamed_addr constant [41 x i8] c"attempt to perform arithmetic (%s) on %s\00", align 1
@.str.4 = private unnamed_addr constant [48 x i8] c"attempt to perform arithmetic (%s) on %s and %s\00", align 1

; Function Attrs: mustprogress noreturn uwtable
define hidden void @_Z15luaG_aritherrorP9lua_StatePK10lua_TValueS3_3TMS(ptr noundef %0, ptr noundef %1, ptr noundef %2, i32 noundef %3) #5 {
  %5 = alloca ptr, align 8
  %6 = alloca ptr, align 8
  %7 = alloca ptr, align 8
  %8 = alloca i32, align 4
  %9 = alloca ptr, align 8
  %10 = alloca ptr, align 8
  %11 = alloca ptr, align 8
  store ptr %0, ptr %5, align 8, !tbaa !4
  store ptr %1, ptr %6, align 8, !tbaa !53
  store ptr %2, ptr %7, align 8, !tbaa !53
  store i32 %3, ptr %8, align 4, !tbaa !79
  call void @llvm.lifetime.start.p0(i64 8, ptr %9) #11
  %12 = load ptr, ptr %5, align 8, !tbaa !4
  %13 = load ptr, ptr %6, align 8, !tbaa !53
  %14 = call noundef ptr @_Z16luaT_objtypenameP9lua_StatePK10lua_TValue(ptr noundef %12, ptr noundef %13)
  store ptr %14, ptr %9, align 8, !tbaa !49
  call void @llvm.lifetime.start.p0(i64 8, ptr %10) #11
  %15 = load ptr, ptr %5, align 8, !tbaa !4
  %16 = load ptr, ptr %7, align 8, !tbaa !53
  %17 = call noundef ptr @_Z16luaT_objtypenameP9lua_StatePK10lua_TValue(ptr noundef %15, ptr noundef %16)
  store ptr %17, ptr %10, align 8, !tbaa !49
  call void @llvm.lifetime.start.p0(i64 8, ptr %11) #11
  %18 = load i32, ptr %8, align 4, !tbaa !79
  %19 = zext i32 %18 to i64
  %20 = getelementptr inbounds nuw [0 x ptr], ptr @luaT_eventname, i64 0, i64 %19
  %21 = load ptr, ptr %20, align 8, !tbaa !49
  %22 = getelementptr inbounds i8, ptr %21, i64 2
  store ptr %22, ptr %11, align 8, !tbaa !49
  %23 = load ptr, ptr %9, align 8, !tbaa !49
  %24 = load ptr, ptr %10, align 8, !tbaa !49
  %25 = icmp eq ptr %23, %24
  br i1 %25, label %26, label %30

26:                                               ; preds = %4
  %27 = load ptr, ptr %5, align 8, !tbaa !4
  %28 = load ptr, ptr %11, align 8, !tbaa !49
  %29 = load ptr, ptr %9, align 8, !tbaa !49
  call void (ptr, ptr, ...) @_Z14luaG_runerrorLP9lua_StatePKcz(ptr noundef %27, ptr noundef @.str.3, ptr noundef %28, ptr noundef %29) #12
  unreachable

30:                                               ; preds = %4
  %31 = load ptr, ptr %5, align 8, !tbaa !4
  %32 = load ptr, ptr %11, align 8, !tbaa !49
  %33 = load ptr, ptr %9, align 8, !tbaa !49
  %34 = load ptr, ptr %10, align 8, !tbaa !49
  call void (ptr, ptr, ...) @_Z14luaG_runerrorLP9lua_StatePKcz(ptr noundef %31, ptr noundef @.str.4, ptr noundef %32, ptr noundef %33, ptr noundef %34) #12
  unreachable
}