; Function Attrs: mustprogress noreturn uwtable
define hidden void @_Z15luaG_aritherrorP9lua_StatePK10lua_TValueS3_3TMS(ptr noundef %0, ptr noundef %1, ptr noundef %2, i32 noundef %3) local_unnamed_addr #5 {
  %5 = tail call noundef ptr @_Z16luaT_objtypenameP9lua_StatePK10lua_TValue(ptr noundef %0, ptr noundef %1)
  %6 = tail call noundef ptr @_Z16luaT_objtypenameP9lua_StatePK10lua_TValue(ptr noundef %0, ptr noundef %2)
  %7 = zext i32 %3 to i64
  %8 = getelementptr inbounds nuw [0 x ptr], ptr @luaT_eventname, i64 0, i64 %7
  %9 = load ptr, ptr %8, align 8, !tbaa !70
  %10 = getelementptr inbounds nuw i8, ptr %9, i64 2
  %11 = icmp eq ptr %5, %6
  br i1 %11, label %12, label %13

12:                                               ; preds = %4
  tail call void (ptr, ptr, ...) @_Z14luaG_runerrorLP9lua_StatePKcz(ptr noundef %0, ptr noundef nonnull @.str.3, ptr noundef nonnull %10, ptr noundef %5) #15
  unreachable

13:                                               ; preds = %4
  tail call void (ptr, ptr, ...) @_Z14luaG_runerrorLP9lua_StatePKcz(ptr noundef %0, ptr noundef nonnull @.str.4, ptr noundef nonnull %10, ptr noundef %5, ptr noundef %6) #15
  unreachable
}